target datalayout = "e-m:e-p270:32:32-p271:32:32-p272:64:64-i64:64-i128:128-f80:128-n8:16:32:64-S128"
target triple = "x86_64-pc-linux-gnu"

%struct.LLVMIntrinsics = type { i32, i32, i32, i32, i32, i32, i32, i32, i32, i32, i32, i32, i32, i32, i32, i32, i32, i32, i32, i32, i32, i32, i32, i32, i32, i32, i32, i32, i32, i32, i32, i32, i32, i32, i32, i32, i32, i32, i32, i32, i32, i32, i32, i32, i32, i32, i32, i32, i32, i32, i32, i32, i32, i32, i32, i32, i32, i32, i32, i32, i32, i32, i32, i32, i32, i32, i32, i32, i32, i32, i32, i32, i32, i32, i32, i32, i32, i32, i32, i32, i32, i32, i32, i32, i32, i32, i32, i32, i32, i32, i32, i32, i32, i32 }
%struct.BEValue = type { i8, i32, ptr, ptr, ptr }
%struct.Expr_ = type { ptr, %union.SourceSpan, i16, %union.anon.29 }
%union.SourceSpan = type { i64 }
%union.anon.29 = type { %struct.ExprAnySwitch }
%struct.ExprAnySwitch = type { i8, %union.anon.31 }
%union.anon.31 = type { %struct.anon.32 }
%struct.anon.32 = type { ptr, %union.SourceSpan, ptr }
%struct.ExprCall = type { %union.anon.33, i32, i16, ptr, %union.anon.34 }
%union.anon.33 = type { i32 }
%union.anon.34 = type { ptr }
%struct.GenContext_ = type { i8, ptr, ptr, ptr, ptr, ptr, ptr, ptr, ptr, ptr, ptr, ptr, ptr, ptr, ptr, ptr, ptr, ptr, ptr, ptr, ptr, ptr, ptr, ptr, ptr, ptr, ptr, ptr, ptr, ptr, ptr, ptr, ptr, %struct.anon.85, i32, i32, %struct.DebugContext, ptr, ptr, ptr, %struct.BEValue, i8, %union.SourceSpan, ptr, ptr, ptr, ptr }
%struct.anon.85 = type { ptr, ptr, ptr }
%struct.DebugContext = type { i16, ptr, ptr, %struct.DebugFile_, ptr, ptr, ptr, ptr }
%struct.DebugFile_ = type { i16, ptr }
%struct.Type_ = type { i32, ptr, ptr, ptr, %union.anon.101, ptr, ptr, %union.anon.103 }
%union.anon.101 = type { ptr }
%union.anon.103 = type { %struct.TypeFunction }
%struct.TypeFunction = type { ptr, ptr, ptr }
%struct.ExprConst = type { i16, %union.anon.38 }
%union.anon.38 = type { %struct.Int }
%struct.Int = type { %struct.Int128_, i32 }
%struct.Int128_ = type { i64, i64 }

@intrinsic_id = external global %struct.LLVMIntrinsics, align 4
@type_uint = external global ptr, align 8

; Function Attrs: nounwind uwtable
define internal void @llvm_emit_masked_load(ptr noundef %0, ptr noundef %1, ptr noundef %2) #0 {
  %4 = alloca ptr, align 8
  %5 = alloca i32, align 4
  %6 = alloca ptr, align 8
  %7 = alloca ptr, align 8
  %8 = alloca i64, align 8
  %9 = alloca ptr, align 8
  %10 = alloca ptr, align 8
  %11 = alloca ptr, align 8
  %12 = alloca i32, align 4
  %13 = alloca %struct.BEValue, align 8
  %14 = alloca i32, align 4
  %15 = alloca ptr, align 8
  %16 = alloca ptr, align 8
  %17 = alloca ptr, align 8
  %18 = alloca ptr, align 8
  %19 = alloca [4 x ptr], align 16
  %20 = alloca ptr, align 8
  %21 = alloca ptr, align 8
  %22 = alloca i64, align 8
  %23 = alloca [2 x ptr], align 16
  %24 = alloca ptr, align 8
  store ptr %0, ptr %15, align 8
  store ptr %1, ptr %16, align 8
  store ptr %2, ptr %17, align 8
  %25 = load ptr, ptr %17, align 8
  %26 = getelementptr inbounds %struct.Expr_, ptr %25, i32 0, i32 3
  %27 = getelementptr inbounds %struct.ExprCall, ptr %26, i32 0, i32 3
  %28 = load ptr, ptr %27, align 8
  store ptr %28, ptr %18, align 8
  %29 = load ptr, ptr %15, align 8
  %30 = load ptr, ptr %18, align 8
  %31 = getelementptr inbounds [4 x ptr], ptr %19, i64 0, i64 0
  store ptr %29, ptr %9, align 8
  store ptr %30, ptr %10, align 8
  store ptr %31, ptr %11, align 8
  store i32 3, ptr %12, align 4
  store i32 0, ptr %14, align 4
  br label %32

32:                                               ; preds = %36, %3
  %33 = load i32, ptr %14, align 4
  %34 = load i32, ptr %12, align 4
  %35 = icmp ult i32 %33, %34
  br i1 %35, label %36, label %52

36:                                               ; preds = %32
  %37 = load ptr, ptr %9, align 8
  %38 = load ptr, ptr %10, align 8
  %39 = load i32, ptr %14, align 4
  %40 = zext i32 %39 to i64
  %41 = getelementptr inbounds ptr, ptr %38, i64 %40
  %42 = load ptr, ptr %41, align 8
  call void @llvm_emit_expr(ptr noundef %37, ptr noundef %13, ptr noundef %42) #6
  %43 = load ptr, ptr %9, align 8
  call void @llvm_value_rvalue(ptr noundef %43, ptr noundef %13) #6
  %44 = getelementptr inbounds %struct.BEValue, ptr %13, i32 0, i32 3
  %45 = load ptr, ptr %44, align 8
  %46 = load ptr, ptr %11, align 8
  %47 = load i32, ptr %14, align 4
  %48 = zext i32 %47 to i64
  %49 = getelementptr inbounds ptr, ptr %46, i64 %48
  store ptr %45, ptr %49, align 8
  %50 = load i32, ptr %14, align 4
  %51 = add i32 %50, 1
  store i32 %51, ptr %14, align 4
  br label %32, !llvm.loop !34

52:                                               ; preds = %32
  %53 = getelementptr inbounds [4 x ptr], ptr %19, i64 0, i64 2
  %54 = load ptr, ptr %53, align 16
  store ptr %54, ptr %20, align 8
  %55 = getelementptr inbounds [4 x ptr], ptr %19, i64 0, i64 1
  %56 = load ptr, ptr %55, align 8
  store ptr %56, ptr %21, align 8
  %57 = load ptr, ptr %18, align 8
  %58 = getelementptr inbounds ptr, ptr %57, i64 3
  %59 = load ptr, ptr %58, align 8
  %60 = getelementptr inbounds %struct.Expr_, ptr %59, i32 0, i32 3
  %61 = getelementptr inbounds %struct.ExprConst, ptr %60, i32 0, i32 1
  %62 = getelementptr inbounds %struct.Int, ptr %61, i32 0, i32 0
  %63 = getelementptr inbounds %struct.Int128_, ptr %62, i32 0, i32 1
  %64 = load i64, ptr %63, align 8
  store i64 %64, ptr %22, align 8
  %65 = getelementptr inbounds [2 x ptr], ptr %23, i64 0, i64 0
  %66 = load ptr, ptr %20, align 8
  %67 = call ptr @LLVMTypeOf(ptr noundef %66)
  store ptr %67, ptr %65, align 8
  %68 = getelementptr inbounds ptr, ptr %65, i64 1
  %69 = load ptr, ptr %15, align 8
  %70 = getelementptr inbounds %struct.GenContext_, ptr %69, i32 0, i32 27
  %71 = load ptr, ptr %70, align 8
  store ptr %71, ptr %68, align 8
  %72 = load ptr, ptr %15, align 8
  %73 = load ptr, ptr @type_uint, align 8
  %74 = load i64, ptr %22, align 8
  %75 = icmp ne i64 %74, 0
  br i1 %75, label %76, label %78

76:                                               ; preds = %52
  %77 = load i64, ptr %22, align 8
  br label %84

78:                                               ; preds = %52
  %79 = load ptr, ptr %15, align 8
  %80 = getelementptr inbounds [2 x ptr], ptr %23, i64 0, i64 0
  %81 = load ptr, ptr %80, align 16
  %82 = call i32 @llvm_abi_alignment(ptr noundef %79, ptr noundef %81)
  %83 = zext i32 %82 to i64
  br label %84

84:                                               ; preds = %78, %76
  %85 = phi i64 [ %77, %76 ], [ %83, %78 ]
  store ptr %72, ptr %6, align 8
  store ptr %73, ptr %7, align 8
  store i64 %85, ptr %8, align 8
  %86 = load ptr, ptr %7, align 8
  %87 = call ptr @type_lowering(ptr noundef %86)
  store ptr %87, ptr %7, align 8
  %88 = load ptr, ptr %6, align 8
  %89 = load ptr, ptr %7, align 8
  %90 = call ptr @llvm_get_type(ptr noundef %88, ptr noundef %89) #6
  %91 = load i64, ptr %8, align 8
  %92 = load ptr, ptr %7, align 8
  store ptr %92, ptr %4, align 8
  %93 = load ptr, ptr %4, align 8
  %94 = load i32, ptr %93, align 8
  store i32 %94, ptr %5, align 4
  %95 = load i32, ptr %5, align 4
  %96 = icmp eq i32 %95, 31
  br i1 %96, label %97, label %102

97:                                               ; preds = %84
  %98 = load ptr, ptr %4, align 8
  %99 = getelementptr inbounds %struct.Type_, ptr %98, i32 0, i32 1
  %100 = load ptr, ptr %99, align 8
  %101 = load i32, ptr %100, align 8
  store i32 %101, ptr %5, align 4
  br label %102

102:                                              ; preds = %97, %84
  %103 = load i32, ptr %5, align 4
  %104 = icmp uge i32 %103, 3
  br i1 %104, label %105, label %108

105:                                              ; preds = %102
  %106 = load i32, ptr %5, align 4
  %107 = icmp ule i32 %106, 7
  br label %108

108:                                              ; preds = %105, %102
  %109 = phi i1 [ false, %102 ], [ %107, %105 ]
  %110 = zext i1 %109 to i32
  %111 = call ptr @LLVMConstInt(ptr noundef %90, i64 noundef %91, i32 noundef %110) #6
  %112 = getelementptr inbounds [4 x ptr], ptr %19, i64 0, i64 1
  store ptr %111, ptr %112, align 8
  %113 = load ptr, ptr %21, align 8
  %114 = getelementptr inbounds [4 x ptr], ptr %19, i64 0, i64 2
  store ptr %113, ptr %114, align 16
  %115 = load ptr, ptr %20, align 8
  %116 = getelementptr inbounds [4 x ptr], ptr %19, i64 0, i64 3
  store ptr %115, ptr %116, align 8
  %117 = load ptr, ptr %15, align 8
  %118 = load i32, ptr getelementptr inbounds (%struct.LLVMIntrinsics, ptr @intrinsic_id, i32 0, i32 36), align 4
  %119 = getelementptr inbounds [2 x ptr], ptr %23, i64 0, i64 0
  %120 = getelementptr inbounds [4 x ptr], ptr %19, i64 0, i64 0
  %121 = call ptr @llvm_emit_call_intrinsic(ptr noundef %117, i32 noundef %118, ptr noundef %119, i32 noundef 2, ptr noundef %120, i32 noundef 4)
  store ptr %121, ptr %24, align 8
  %122 = load ptr, ptr %16, align 8
  %123 = load ptr, ptr %24, align 8
  %124 = load ptr, ptr %17, align 8
  %125 = getelementptr inbounds %struct.Expr_, ptr %124, i32 0, i32 0
  %126 = load ptr, ptr %125, align 8
  call void @llvm_value_set(ptr noundef %122, ptr noundef %123, ptr noundef %126)
  ret void
}