; Function Attrs: nounwind uwtable
define internal fastcc void @llvm_emit_masked_load(ptr noundef %0, ptr noundef %1, ptr nocapture noundef readonly %2) unnamed_addr #0 {
  %4 = alloca %struct.BEValue, align 8
  %5 = alloca [4 x ptr], align 16
  %6 = alloca [2 x ptr], align 16
  %7 = getelementptr inbounds i8, ptr %2, i64 40
  %8 = load ptr, ptr %7, align 8
  %9 = getelementptr inbounds i8, ptr %4, i64 16
  br label %10

10:                                               ; preds = %3, %10
  %indvars.iv = phi i64 [ 0, %3 ], [ %indvars.iv.next, %10 ]
  %11 = getelementptr inbounds ptr, ptr %8, i64 %indvars.iv
  %12 = load ptr, ptr %11, align 8
  call void @llvm_emit_expr(ptr noundef %0, ptr noundef nonnull %4, ptr noundef %12) #8
  call void @llvm_value_rvalue(ptr noundef %0, ptr noundef nonnull %4) #8
  %13 = load ptr, ptr %9, align 8
  %14 = getelementptr inbounds ptr, ptr %5, i64 %indvars.iv
  store ptr %13, ptr %14, align 8
  %indvars.iv.next = add nuw nsw i64 %indvars.iv, 1
  %exitcond.not = icmp eq i64 %indvars.iv.next, 3
  br i1 %exitcond.not, label %15, label %10, !llvm.loop !29

15:                                               ; preds = %10
  %16 = getelementptr inbounds i8, ptr %5, i64 16
  %17 = load ptr, ptr %16, align 16
  %18 = getelementptr inbounds i8, ptr %5, i64 8
  %19 = load ptr, ptr %18, align 8
  %20 = getelementptr inbounds i8, ptr %8, i64 24
  %21 = load ptr, ptr %20, align 8
  %22 = getelementptr inbounds i8, ptr %21, i64 40
  %23 = load i64, ptr %22, align 8
  %24 = call ptr @LLVMTypeOf(ptr noundef %17) #8
  store ptr %24, ptr %6, align 16
  %25 = getelementptr inbounds i8, ptr %6, i64 8
  %26 = getelementptr inbounds i8, ptr %0, i64 216
  %27 = load ptr, ptr %26, align 8
  store ptr %27, ptr %25, align 8
  %28 = load ptr, ptr @type_uint, align 8
  %.not = icmp eq i64 %23, 0
  br i1 %.not, label %29, label %32

29:                                               ; preds = %15
  %30 = call i32 @llvm_abi_alignment(ptr noundef nonnull %0, ptr noundef %24) #8
  %31 = zext i32 %30 to i64
  br label %32

32:                                               ; preds = %15, %29
  %33 = phi i64 [ %31, %29 ], [ %23, %15 ]
  %34 = call fastcc ptr @type_lowering(ptr noundef %28)
  %35 = call ptr @llvm_get_type(ptr noundef nonnull %0, ptr noundef %34) #8
  %36 = load i32, ptr %34, align 8
  %37 = icmp eq i32 %36, 31
  br i1 %37, label %38, label %42

38:                                               ; preds = %32
  %39 = getelementptr inbounds i8, ptr %34, i64 8
  %40 = load ptr, ptr %39, align 8
  %41 = load i32, ptr %40, align 8
  br label %42

42:                                               ; preds = %38, %32
  %.0 = phi i32 [ %41, %38 ], [ %36, %32 ]
  %43 = add i32 %.0, -3
  %44 = icmp ult i32 %43, 5
  %45 = zext i1 %44 to i32
  %46 = call ptr @LLVMConstInt(ptr noundef %35, i64 noundef %33, i32 noundef %45) #8
  store ptr %46, ptr %18, align 8
  store ptr %19, ptr %16, align 16
  %47 = getelementptr inbounds i8, ptr %5, i64 24
  store ptr %17, ptr %47, align 8
  %48 = load i32, ptr getelementptr inbounds (%struct.LLVMIntrinsics, ptr @intrinsic_id, i64 0, i32 36), align 4
  %49 = call ptr @llvm_emit_call_intrinsic(ptr noundef nonnull %0, i32 noundef %48, ptr noundef nonnull %6, i32 noundef 2, ptr noundef nonnull %5, i32 noundef 4) #8
  %50 = load ptr, ptr %2, align 8
  call void @llvm_value_set(ptr noundef %1, ptr noundef %49, ptr noundef %50) #8
  ret void
}